; Function Attrs: mustprogress nofree norecurse nosync nounwind willreturn memory(readwrite, inaccessiblemem: none) uwtable
define internal noundef i32 @pre(i32 %0, ptr nocapture readnone %1, ptr noundef readonly %2) #9 {
  %.not = icmp eq ptr %2, null
  br i1 %.not, label %11, label %4

4:                                                ; preds = %3
  %5 = load ptr, ptr %2, align 8
  %6 = icmp eq ptr %5, null
  br i1 %6, label %11, label %7

7:                                                ; preds = %4
  %8 = getelementptr inbounds i8, ptr %5, i64 24
  %9 = load i64, ptr %8, align 8
  %10 = add i64 %9, 1
  store i64 %10, ptr %8, align 8
  br label %11

11:                                               ; preds = %4, %3, %7
  ret i32 0
}